; Function Attrs: mustprogress uwtable
define void @_ZN3nix10ThreadPool7processEv(ptr noundef nonnull align 8 dereferenceable(232) %0) local_unnamed_addr #2 align 2 personality ptr @__gxx_personality_v0 {
  %2 = alloca %"class.std::__exception_ptr::exception_ptr", align 8
  %3 = getelementptr inbounds i8, ptr %0, i64 16
  %4 = tail call noundef i32 @pthread_mutex_lock(ptr noundef nonnull %3) #27, !noalias !19
  %.not.i.i.i.i.i = icmp eq i32 %4, 0
  br i1 %.not.i.i.i.i.i, label %_ZN3nix4SyncINS_10ThreadPool5StateESt5mutexE4LockD2Ev.exit, label %5

5:                                                ; preds = %1
  tail call void @_ZSt20__throw_system_errori(i32 noundef %4) #29, !noalias !19
  unreachable

_ZN3nix4SyncINS_10ThreadPool5StateESt5mutexE4LockD2Ev.exit: ; preds = %1
  %6 = getelementptr inbounds i8, ptr %0, i64 176
  store i8 1, ptr %6, align 8
  %7 = tail call noundef i32 @pthread_mutex_unlock(ptr noundef nonnull %3) #27
  invoke void @_ZN3nix10ThreadPool6doWorkEb(ptr noundef nonnull align 8 dereferenceable(232) %0, i1 noundef zeroext true)
          to label %8 unwind label %14

8:                                                ; preds = %_ZN3nix4SyncINS_10ThreadPool5StateESt5mutexE4LockD2Ev.exit
  %9 = tail call noundef i32 @pthread_mutex_lock(ptr noundef nonnull %3) #27, !noalias !22
  %.not.i.i.i.i.i3 = icmp eq i32 %9, 0
  br i1 %.not.i.i.i.i.i3, label %_ZN3nix4SyncINS_10ThreadPool5StateESt5mutexE4lockEv.exit4, label %10

10:                                               ; preds = %8
  invoke void @_ZSt20__throw_system_errori(i32 noundef %9) #29
          to label %.noexc unwind label %14

.noexc:                                           ; preds = %10
  unreachable

_ZN3nix4SyncINS_10ThreadPool5StateESt5mutexE4lockEv.exit4: ; preds = %8
  %11 = getelementptr inbounds i8, ptr %0, i64 144
  %12 = load ptr, ptr %11, align 8
  %.not = icmp eq ptr %12, null
  br i1 %.not, label %_ZN3nix4SyncINS_10ThreadPool5StateESt5mutexE4LockD2Ev.exit11, label %_ZNSt15__exception_ptr13exception_ptrC2ERKS0_.exit

_ZNSt15__exception_ptr13exception_ptrC2ERKS0_.exit: ; preds = %_ZN3nix4SyncINS_10ThreadPool5StateESt5mutexE4lockEv.exit4
  store ptr %12, ptr %2, align 8
  call void @_ZNSt15__exception_ptr13exception_ptr9_M_addrefEv(ptr noundef nonnull align 8 dereferenceable(8) %2) #27
  invoke void @_ZSt17rethrow_exceptionNSt15__exception_ptr13exception_ptrE(ptr noundef nonnull %2) #29
          to label %13 unwind label %16

13:                                               ; preds = %_ZNSt15__exception_ptr13exception_ptrC2ERKS0_.exit
  unreachable

14:                                               ; preds = %10, %_ZN3nix4SyncINS_10ThreadPool5StateESt5mutexE4LockD2Ev.exit
  %15 = landingpad { ptr, i32 }
          catch ptr null
  br label %22

16:                                               ; preds = %_ZNSt15__exception_ptr13exception_ptrC2ERKS0_.exit
  %17 = landingpad { ptr, i32 }
          catch ptr null
  %18 = load ptr, ptr %2, align 8
  %.not.i5 = icmp eq ptr %18, null
  br i1 %.not.i5, label %_ZN3nix4SyncINS_10ThreadPool5StateESt5mutexE4LockD2Ev.exit8, label %19

19:                                               ; preds = %16
  call void @_ZNSt15__exception_ptr13exception_ptr10_M_releaseEv(ptr noundef nonnull align 8 dereferenceable(8) %2) #27
  br label %_ZN3nix4SyncINS_10ThreadPool5StateESt5mutexE4LockD2Ev.exit8

_ZN3nix4SyncINS_10ThreadPool5StateESt5mutexE4LockD2Ev.exit8: ; preds = %19, %16
  %20 = call noundef i32 @pthread_mutex_unlock(ptr noundef nonnull %3) #27
  br label %22

_ZN3nix4SyncINS_10ThreadPool5StateESt5mutexE4LockD2Ev.exit11: ; preds = %_ZN3nix4SyncINS_10ThreadPool5StateESt5mutexE4lockEv.exit4
  %21 = tail call noundef i32 @pthread_mutex_unlock(ptr noundef nonnull %3) #27
  ret void

22:                                               ; preds = %_ZN3nix4SyncINS_10ThreadPool5StateESt5mutexE4LockD2Ev.exit8, %14
  %.pn = phi { ptr, i32 } [ %17, %_ZN3nix4SyncINS_10ThreadPool5StateESt5mutexE4LockD2Ev.exit8 ], [ %15, %14 ]
  %.0 = extractvalue { ptr, i32 } %.pn, 0
  %23 = call ptr @__cxa_begin_catch(ptr %.0) #27
  invoke void @_ZN3nix10ThreadPool8shutdownEv(ptr noundef nonnull align 8 dereferenceable(232) %0)
          to label %24 unwind label %25

24:                                               ; preds = %22
  invoke void @__cxa_rethrow() #29
          to label %31 unwind label %25

25:                                               ; preds = %24, %22
  %26 = landingpad { ptr, i32 }
          cleanup
  invoke void @__cxa_end_catch()
          to label %27 unwind label %28

27:                                               ; preds = %25
  resume { ptr, i32 } %26

28:                                               ; preds = %25
  %29 = landingpad { ptr, i32 }
          catch ptr null
  %30 = extractvalue { ptr, i32 } %29, 0
  call void @__clang_call_terminate(ptr %30) #31
  unreachable

31:                                               ; preds = %24
  unreachable
}